; Function Attrs: nounwind uwtable
define void @av_executor_execute(ptr noundef %0, ptr noundef %1) local_unnamed_addr #0 {
  %3 = getelementptr inbounds nuw i8, ptr %0, i64 40
  %4 = load i32, ptr %3, align 8, !tbaa !24
  %.not = icmp eq i32 %4, 0
  br i1 %.not, label %8, label %5

5:                                                ; preds = %2
  %6 = getelementptr inbounds nuw i8, ptr %0, i64 64
  %7 = tail call i32 @pthread_mutex_lock(ptr noundef nonnull %6) #5
  br label %8

8:                                                ; preds = %5, %2
  %.not23 = icmp eq ptr %1, null
  br i1 %.not23, label %19, label %9

9:                                                ; preds = %8
  %10 = getelementptr inbounds nuw i8, ptr %0, i64 160
  %11 = getelementptr inbounds nuw i8, ptr %0, i64 16
  %12 = load ptr, ptr %10, align 8, !tbaa !32
  %.not2434 = icmp eq ptr %12, null
  br i1 %.not2434, label %.critedge, label %.lr.ph

.lr.ph:                                           ; preds = %9, %16
  %13 = phi ptr [ %17, %16 ], [ %12, %9 ]
  %.035 = phi ptr [ %.pre.pre, %16 ], [ %10, %9 ]
  %14 = load ptr, ptr %11, align 8, !tbaa !12
  %15 = tail call i32 %14(ptr noundef nonnull %13, ptr noundef nonnull %1) #5
  %.not25 = icmp eq i32 %15, 0
  %.pre.pre = load ptr, ptr %.035, align 8, !tbaa !32
  br i1 %.not25, label %.critedge, label %16

16:                                               ; preds = %.lr.ph
  %17 = load ptr, ptr %.pre.pre, align 8, !tbaa !32
  %.not24 = icmp eq ptr %17, null
  br i1 %.not24, label %.critedge, label %.lr.ph, !llvm.loop !39

.critedge:                                        ; preds = %16, %.lr.ph, %9
  %18 = phi ptr [ null, %9 ], [ null, %16 ], [ %.pre.pre, %.lr.ph ]
  %.0.lcssa = phi ptr [ %10, %9 ], [ %.pre.pre, %16 ], [ %.035, %.lr.ph ]
  store ptr %18, ptr %1, align 8, !tbaa !34
  store ptr %1, ptr %.0.lcssa, align 8, !tbaa !32
  br label %19

19:                                               ; preds = %.critedge, %8
  %20 = load i32, ptr %3, align 8, !tbaa !24
  %.not26 = icmp eq i32 %20, 0
  br i1 %.not26, label %.thread, label %21

21:                                               ; preds = %19
  %22 = getelementptr inbounds nuw i8, ptr %0, i64 104
  %23 = tail call i32 @pthread_cond_signal(ptr noundef nonnull %22) #5
  %24 = getelementptr inbounds nuw i8, ptr %0, i64 64
  %25 = tail call i32 @pthread_mutex_unlock(ptr noundef nonnull %24) #5
  %.pr = load i32, ptr %3, align 8, !tbaa !24
  %.not27 = icmp eq i32 %.pr, 0
  br i1 %.not27, label %.thread, label %61

.thread:                                          ; preds = %19, %21
  %26 = getelementptr inbounds nuw i8, ptr %0, i64 44
  %27 = load i8, ptr %26, align 4, !tbaa !40, !range !41, !noundef !42
  %28 = trunc nuw i8 %27 to i1
  br i1 %28, label %61, label %29

29:                                               ; preds = %.thread
  store i8 1, ptr %26, align 4, !tbaa !40
  %30 = getelementptr inbounds nuw i8, ptr %0, i64 56
  %31 = getelementptr inbounds nuw i8, ptr %0, i64 160
  %32 = load ptr, ptr %31, align 8, !tbaa !32
  %.not25.i38 = icmp eq ptr %32, null
  br i1 %.not25.i38, label %.loopexit, label %.lr.ph.i.lr.ph

.lr.ph.i.lr.ph:                                   ; preds = %29
  %33 = getelementptr inbounds nuw i8, ptr %0, i64 24
  %34 = getelementptr inbounds nuw i8, ptr %0, i64 64
  %35 = getelementptr inbounds nuw i8, ptr %0, i64 32
  br label %.lr.ph.i

.lr.ph.i:                                         ; preds = %.lr.ph.i.lr.ph, %run_one_task.exit
  %36 = phi ptr [ %32, %.lr.ph.i.lr.ph ], [ %60, %run_one_task.exit ]
  %37 = load ptr, ptr %30, align 8, !tbaa !22
  br label %38

38:                                               ; preds = %44, %.lr.ph.i
  %39 = phi ptr [ %36, %.lr.ph.i ], [ %45, %44 ]
  %.01826.i = phi ptr [ %31, %.lr.ph.i ], [ %43, %44 ]
  %40 = load ptr, ptr %33, align 8, !tbaa !10
  %41 = load ptr, ptr %0, align 8, !tbaa !4
  %42 = tail call i32 %40(ptr noundef nonnull %39, ptr noundef %41) #5
  %.not21.i = icmp eq i32 %42, 0
  %43 = load ptr, ptr %.01826.i, align 8, !tbaa !32
  br i1 %.not21.i, label %44, label %.critedge.i

44:                                               ; preds = %38
  %45 = load ptr, ptr %43, align 8, !tbaa !32
  %.not.i = icmp eq ptr %45, null
  br i1 %.not.i, label %.loopexit, label %38, !llvm.loop !33

.critedge.i:                                      ; preds = %38
  %.not22.i = icmp eq ptr %43, null
  br i1 %.not22.i, label %.loopexit, label %46

46:                                               ; preds = %.critedge.i
  %47 = load ptr, ptr %43, align 8, !tbaa !34
  store ptr %47, ptr %.01826.i, align 8, !tbaa !32
  store ptr null, ptr %43, align 8, !tbaa !34
  %48 = load i32, ptr %3, align 8, !tbaa !24
  %49 = icmp sgt i32 %48, 0
  br i1 %49, label %50, label %52

50:                                               ; preds = %46
  %51 = tail call i32 @pthread_mutex_unlock(ptr noundef nonnull %34) #5
  br label %52

52:                                               ; preds = %50, %46
  %53 = load ptr, ptr %35, align 8, !tbaa !11
  %54 = load ptr, ptr %0, align 8, !tbaa !4
  %55 = tail call i32 %53(ptr noundef nonnull %43, ptr noundef %37, ptr noundef %54) #5
  %56 = load i32, ptr %3, align 8, !tbaa !24
  %57 = icmp sgt i32 %56, 0
  br i1 %57, label %58, label %run_one_task.exit

58:                                               ; preds = %52
  %59 = tail call i32 @pthread_mutex_lock(ptr noundef nonnull %34) #5
  br label %run_one_task.exit

run_one_task.exit:                                ; preds = %52, %58
  %60 = load ptr, ptr %31, align 8, !tbaa !32
  %.not25.i = icmp eq ptr %60, null
  br i1 %.not25.i, label %.loopexit, label %.lr.ph.i, !llvm.loop !43

.loopexit:                                        ; preds = %run_one_task.exit, %.critedge.i, %44, %29
  store i8 0, ptr %26, align 4, !tbaa !40
  br label %61

61:                                               ; preds = %21, %.loopexit, %.thread
  ret void
}